	.file	"quick_sort.c"
	.text
	.globl	quick_sort
	.type	quick_sort, @function
quick_sort:
.LFB0:
	.cfi_startproc
	pushl	%ebp
	.cfi_def_cfa_offset 8
	.cfi_offset 5, -8
	movl	%esp, %ebp
	.cfi_def_cfa_register 5
	subl	$40, %esp
	movl	$0, -20(%ebp)
	movl	$0, -16(%ebp)
	movl	$0, -12(%ebp)
	movl	12(%ebp), %eax
	movl	%eax, -20(%ebp)
	movl	16(%ebp), %eax
	movl	%eax, -16(%ebp)
	movl	-20(%ebp), %eax
	leal	0(,%eax,4), %edx
	movl	8(%ebp), %eax
	addl	%edx, %eax
	movl	(%eax), %eax
	movl	%eax, -12(%ebp)
	jmp	.L2
.L5:
	subl	$1, -16(%ebp)
.L3:
	movl	-20(%ebp), %eax
	cmpl	-16(%ebp), %eax
	jge	.L4
	movl	-16(%ebp), %eax
	leal	0(,%eax,4), %edx
	movl	8(%ebp), %eax
	addl	%edx, %eax
	movl	(%eax), %eax
	cmpl	-12(%ebp), %eax
	jg	.L5
.L4:
	movl	-20(%ebp), %eax
	leal	0(,%eax,4), %edx
	movl	8(%ebp), %eax
	addl	%eax, %edx
	movl	-16(%ebp), %eax
	leal	0(,%eax,4), %ecx
	movl	8(%ebp), %eax
	addl	%ecx, %eax
	movl	(%eax), %eax
	movl	%eax, (%edx)
	jmp	.L6
.L8:
	addl	$1, -20(%ebp)
.L6:
	movl	-20(%ebp), %eax
	cmpl	-16(%ebp), %eax
	jge	.L7
	movl	-20(%ebp), %eax
	leal	0(,%eax,4), %edx
	movl	8(%ebp), %eax
	addl	%edx, %eax
	movl	(%eax), %eax
	cmpl	-12(%ebp), %eax
	jl	.L8
.L7:
	movl	-16(%ebp), %eax
	leal	0(,%eax,4), %edx
	movl	8(%ebp), %eax
	addl	%eax, %edx
	movl	-20(%ebp), %eax
	leal	0(,%eax,4), %ecx
	movl	8(%ebp), %eax
	addl	%ecx, %eax
	movl	(%eax), %eax
	movl	%eax, (%edx)
.L2:
	movl	-20(%ebp), %eax
	cmpl	-16(%ebp), %eax
	jl	.L3
	movl	-20(%ebp), %eax
	leal	0(,%eax,4), %edx
	movl	8(%ebp), %eax
	addl	%eax, %edx
	movl	-12(%ebp), %eax
	movl	%eax, (%edx)
	movl	-20(%ebp), %eax
	subl	$1, %eax
	movl	%eax, 8(%esp)
	movl	12(%ebp), %eax
	movl	%eax, 4(%esp)
	movl	8(%ebp), %eax
	movl	%eax, (%esp)
	call	quick_sort
	movl	-20(%ebp), %eax
	leal	1(%eax), %edx
	movl	16(%ebp), %eax
	movl	%eax, 8(%esp)
	movl	%edx, 4(%esp)
	movl	8(%ebp), %eax
	movl	%eax, (%esp)
	call	quick_sort
	nop
	leave
	.cfi_restore 5
	.cfi_def_cfa 4, 4
	ret
	.cfi_endproc
.LFE0:
	.size	quick_sort, .-quick_sort
	.ident	"GCC: (Ubuntu/Linaro 4.7.2-2ubuntu1) 4.7.2"
	.section	.note.GNU-stack,"",@progbits
